target datalayout = "e-m:e-p270:32:32-p271:32:32-p272:64:64-i64:64-i128:128-f80:128-n8:16:32:64-S128"
target triple = "x86_64-pc-linux-gnu"

%"class.cv::MatExpr" = type { ptr, i32, %"class.cv::Mat", %"class.cv::Mat", %"class.cv::Mat", double, double, %"class.cv::Scalar_" }
%"class.cv::Mat" = type { i32, i32, i32, i32, ptr, ptr, ptr, ptr, ptr, ptr, %"struct.cv::MatSize", %"struct.cv::MatStep" }
%"struct.cv::MatSize" = type { ptr }
%"struct.cv::MatStep" = type { ptr, [2 x i64] }
%"class.cv::Scalar_" = type { %"class.cv::Vec" }
%"class.cv::Vec" = type { %"class.cv::Matx" }
%"class.cv::Matx" = type { [4 x double] }
%"class.std::__cxx11::basic_string" = type { %"struct.std::__cxx11::basic_string<char>::_Alloc_hider", i64, %union.anon }
%"struct.std::__cxx11::basic_string<char>::_Alloc_hider" = type { ptr }
%union.anon = type { i64, [8 x i8] }
%"class.std::allocator" = type { i8 }

@.str.9 = private unnamed_addr constant [131 x i8] c"generated/home/dtcxzyw/WorkSpace/Projects/compilers/llvm-opt-benchmark/bench/opencv/opencv/modules/core/src/matrix_expressions.cpp\00", align 1
@__func__._ZN2cvL18checkOperandsExistERKNS_3MatES2_ = private unnamed_addr constant [19 x i8] c"checkOperandsExist\00", align 1
@.str.61 = private unnamed_addr constant [35 x i8] c"Matrix operand is an empty matrix.\00", align 1

; Function Attrs: mustprogress nounwind uwtable
define linkonce_odr hidden void @_ZN2cv4MatxIdLi4ELi1EEC2Ev(ptr noundef nonnull align 8 dereferenceable(32) %0) unnamed_addr #4 comdat align 2 {
  %2 = alloca ptr, align 8
  %3 = alloca i32, align 4
  store ptr %0, ptr %2, align 8
  %4 = load ptr, ptr %2, align 8
  store i32 0, ptr %3, align 4
  br label %5

5:                                                ; preds = %13, %1
  %6 = load i32, ptr %3, align 4
  %7 = icmp slt i32 %6, 4
  br i1 %7, label %8, label %16

8:                                                ; preds = %5
  %9 = getelementptr inbounds %"class.cv::Matx", ptr %4, i32 0, i32 0
  %10 = load i32, ptr %3, align 4
  %11 = sext i32 %10 to i64
  %12 = getelementptr inbounds [4 x double], ptr %9, i64 0, i64 %11
  store double 0.000000e+00, ptr %12, align 8
  br label %13

13:                                               ; preds = %8
  %14 = load i32, ptr %3, align 4
  %15 = add nsw i32 %14, 1
  store i32 %15, ptr %3, align 4
  br label %5, !llvm.loop !7

16:                                               ; preds = %5
  ret void
}

; Function Attrs: mustprogress uwtable
define linkonce_odr hidden void @_ZN2cv3VecIdLi4EEC2Ev(ptr noundef nonnull align 8 dereferenceable(32) %0) unnamed_addr #6 comdat align 2 {
  %2 = alloca ptr, align 8
  store ptr %0, ptr %2, align 8
  %3 = load ptr, ptr %2, align 8
  call void @_ZN2cv4MatxIdLi4ELi1EEC2Ev(ptr noundef nonnull align 8 dereferenceable(32) %3)
  ret void
}

; Function Attrs: mustprogress uwtable
define linkonce_odr hidden void @_ZN2cv7Scalar_IdEC2Ev(ptr noundef nonnull align 8 dereferenceable(32) %0) unnamed_addr #6 comdat align 2 {
  %2 = alloca ptr, align 8
  store ptr %0, ptr %2, align 8
  %3 = load ptr, ptr %2, align 8
  call void @_ZN2cv3VecIdLi4EEC2Ev(ptr noundef nonnull align 8 dereferenceable(32) %3)
  %4 = getelementptr inbounds %"class.cv::Matx", ptr %3, i32 0, i32 0
  %5 = getelementptr inbounds [4 x double], ptr %4, i64 0, i64 3
  store double 0.000000e+00, ptr %5, align 8
  %6 = getelementptr inbounds %"class.cv::Matx", ptr %3, i32 0, i32 0
  %7 = getelementptr inbounds [4 x double], ptr %6, i64 0, i64 2
  store double 0.000000e+00, ptr %7, align 8
  %8 = getelementptr inbounds %"class.cv::Matx", ptr %3, i32 0, i32 0
  %9 = getelementptr inbounds [4 x double], ptr %8, i64 0, i64 1
  store double 0.000000e+00, ptr %9, align 8
  %10 = getelementptr inbounds %"class.cv::Matx", ptr %3, i32 0, i32 0
  %11 = getelementptr inbounds [4 x double], ptr %10, i64 0, i64 0
  store double 0.000000e+00, ptr %11, align 8
  ret void
}

; Function Attrs: mustprogress uwtable
define linkonce_odr hidden void @_ZN2cv7MatExprC2Ev(ptr noundef nonnull align 8 dereferenceable(352) %0) unnamed_addr #6 comdat align 2 personality ptr @__gxx_personality_v0 {
  %2 = alloca ptr, align 8
  %3 = alloca ptr, align 8
  %4 = alloca i32, align 4
  store ptr %0, ptr %2, align 8
  %5 = load ptr, ptr %2, align 8
  %6 = getelementptr inbounds %"class.cv::MatExpr", ptr %5, i32 0, i32 0
  store ptr null, ptr %6, align 8
  %7 = getelementptr inbounds %"class.cv::MatExpr", ptr %5, i32 0, i32 1
  store i32 0, ptr %7, align 8
  %8 = getelementptr inbounds %"class.cv::MatExpr", ptr %5, i32 0, i32 2
  call void @_ZN2cv3MatC1Ev(ptr noundef nonnull align 8 dereferenceable(96) %8) #3
  %9 = getelementptr inbounds %"class.cv::MatExpr", ptr %5, i32 0, i32 3
  call void @_ZN2cv3MatC1Ev(ptr noundef nonnull align 8 dereferenceable(96) %9) #3
  %10 = getelementptr inbounds %"class.cv::MatExpr", ptr %5, i32 0, i32 4
  call void @_ZN2cv3MatC1Ev(ptr noundef nonnull align 8 dereferenceable(96) %10) #3
  %11 = getelementptr inbounds %"class.cv::MatExpr", ptr %5, i32 0, i32 5
  store double 0.000000e+00, ptr %11, align 8
  %12 = getelementptr inbounds %"class.cv::MatExpr", ptr %5, i32 0, i32 6
  store double 0.000000e+00, ptr %12, align 8
  %13 = getelementptr inbounds %"class.cv::MatExpr", ptr %5, i32 0, i32 7
  invoke void @_ZN2cv7Scalar_IdEC2Ev(ptr noundef nonnull align 8 dereferenceable(32) %13)
          to label %14 unwind label %15

14:                                               ; preds = %1
  ret void

15:                                               ; preds = %1
  %16 = landingpad { ptr, i32 }
          cleanup
  %17 = extractvalue { ptr, i32 } %16, 0
  store ptr %17, ptr %3, align 8
  %18 = extractvalue { ptr, i32 } %16, 1
  store i32 %18, ptr %4, align 4
  call void @_ZN2cv3MatD1Ev(ptr noundef nonnull align 8 dereferenceable(96) %10) #3
  call void @_ZN2cv3MatD1Ev(ptr noundef nonnull align 8 dereferenceable(96) %9) #3
  call void @_ZN2cv3MatD1Ev(ptr noundef nonnull align 8 dereferenceable(96) %8) #3
  br label %19

19:                                               ; preds = %15
  %20 = load ptr, ptr %3, align 8
  %21 = load i32, ptr %4, align 4
  %22 = insertvalue { ptr, i32 } poison, ptr %20, 0
  %23 = insertvalue { ptr, i32 } %22, i32 %21, 1
  resume { ptr, i32 } %23
}

; Function Attrs: mustprogress uwtable
define internal void @_ZN2cvL18checkOperandsExistERKNS_3MatE(ptr noundef nonnull align 8 dereferenceable(96) %0) #6 personality ptr @__gxx_personality_v0 {
  %2 = alloca ptr, align 8
  %3 = alloca %"class.std::__cxx11::basic_string", align 8
  %4 = alloca %"class.std::allocator", align 1
  %5 = alloca ptr, align 8
  %6 = alloca i32, align 4
  store ptr %0, ptr %2, align 8
  %7 = load ptr, ptr %2, align 8
  %8 = call noundef zeroext i1 @_ZNK2cv3Mat5emptyEv(ptr noundef nonnull align 8 dereferenceable(96) %7)
  br i1 %8, label %9, label %21

9:                                                ; preds = %1
  call void @_ZNSaIcEC1Ev(ptr noundef nonnull align 1 dereferenceable(1) %4) #3
  invoke void @_ZNSt7__cxx1112basic_stringIcSt11char_traitsIcESaIcEEC1EPKcRKS3_(ptr noundef nonnull align 8 dereferenceable(32) %3, ptr noundef @.str.61, ptr noundef nonnull align 1 dereferenceable(1) %4)
          to label %10 unwind label %12

10:                                               ; preds = %9
  invoke void @_ZN2cv5errorEiRKNSt7__cxx1112basic_stringIcSt11char_traitsIcESaIcEEEPKcS9_i(i32 noundef -5, ptr noundef nonnull align 8 dereferenceable(32) %3, ptr noundef @__func__._ZN2cvL18checkOperandsExistERKNS_3MatES2_, ptr noundef @.str.9, i32 noundef 24) #14
          to label %11 unwind label %16

11:                                               ; preds = %10
  unreachable

12:                                               ; preds = %9
  %13 = landingpad { ptr, i32 }
          cleanup
  %14 = extractvalue { ptr, i32 } %13, 0
  store ptr %14, ptr %5, align 8
  %15 = extractvalue { ptr, i32 } %13, 1
  store i32 %15, ptr %6, align 4
  br label %20

16:                                               ; preds = %10
  %17 = landingpad { ptr, i32 }
          cleanup
  %18 = extractvalue { ptr, i32 } %17, 0
  store ptr %18, ptr %5, align 8
  %19 = extractvalue { ptr, i32 } %17, 1
  store i32 %19, ptr %6, align 4
  call void @_ZNSt7__cxx1112basic_stringIcSt11char_traitsIcESaIcEED1Ev(ptr noundef nonnull align 8 dereferenceable(32) %3) #3
  br label %20

20:                                               ; preds = %16, %12
  call void @_ZNSaIcED1Ev(ptr noundef nonnull align 1 dereferenceable(1) %4) #3
  br label %22

21:                                               ; preds = %1
  ret void

22:                                               ; preds = %20
  %23 = load ptr, ptr %5, align 8
  %24 = load i32, ptr %6, align 4
  %25 = insertvalue { ptr, i32 } poison, ptr %23, 0
  %26 = insertvalue { ptr, i32 } %25, i32 %24, 1
  resume { ptr, i32 } %26
}

; Function Attrs: mustprogress uwtable
define void @_ZN2cvmlERKNS_3MatEd(ptr dead_on_unwind noalias writable sret(%"class.cv::MatExpr") align 8 %0, ptr noundef nonnull align 8 dereferenceable(96) %1, double noundef %2) #6 personality ptr @__gxx_personality_v0 {
  %4 = alloca ptr, align 8
  %5 = alloca ptr, align 8
  %6 = alloca double, align 8
  %7 = alloca i1, align 1
  %8 = alloca %"class.cv::Mat", align 8
  %9 = alloca %"class.cv::Scalar_", align 8
  %10 = alloca ptr, align 8
  %11 = alloca i32, align 4
  store ptr %0, ptr %4, align 8
  store ptr %1, ptr %5, align 8
  store double %2, ptr %6, align 8
  %12 = load ptr, ptr %5, align 8
  call void @_ZN2cvL18checkOperandsExistERKNS_3MatE(ptr noundef nonnull align 8 dereferenceable(96) %12)
  store i1 false, ptr %7, align 1
  call void @_ZN2cv7MatExprC2Ev(ptr noundef nonnull align 8 dereferenceable(352) %0)
  %13 = load ptr, ptr %5, align 8
  call void @_ZN2cv3MatC1Ev(ptr noundef nonnull align 8 dereferenceable(96) %8) #3
  %14 = load double, ptr %6, align 8
  invoke void @_ZN2cv7Scalar_IdEC2Ev(ptr noundef nonnull align 8 dereferenceable(32) %9)
          to label %15 unwind label %18

15:                                               ; preds = %3
  invoke void @_ZN2cv11MatOp_AddEx8makeExprERNS_7MatExprERKNS_3MatES5_ddRKNS_7Scalar_IdEE(ptr noundef nonnull align 8 dereferenceable(352) %0, ptr noundef nonnull align 8 dereferenceable(96) %13, ptr noundef nonnull align 8 dereferenceable(96) %8, double noundef %14, double noundef 0.000000e+00, ptr noundef nonnull align 8 dereferenceable(32) %9)
          to label %16 unwind label %18

16:                                               ; preds = %15
  call void @_ZN2cv3MatD1Ev(ptr noundef nonnull align 8 dereferenceable(96) %8) #3
  store i1 true, ptr %7, align 1
  %17 = load i1, ptr %7, align 1
  br i1 %17, label %23, label %22

18:                                               ; preds = %15, %3
  %19 = landingpad { ptr, i32 }
          cleanup
  %20 = extractvalue { ptr, i32 } %19, 0
  store ptr %20, ptr %10, align 8
  %21 = extractvalue { ptr, i32 } %19, 1
  store i32 %21, ptr %11, align 4
  call void @_ZN2cv3MatD1Ev(ptr noundef nonnull align 8 dereferenceable(96) %8) #3
  call void @_ZN2cv7MatExprD2Ev(ptr noundef nonnull align 8 dereferenceable(352) %0) #3
  br label %24

22:                                               ; preds = %16
  call void @_ZN2cv7MatExprD2Ev(ptr noundef nonnull align 8 dereferenceable(352) %0) #3
  br label %23

23:                                               ; preds = %22, %16
  ret void

24:                                               ; preds = %18
  %25 = load ptr, ptr %10, align 8
  %26 = load i32, ptr %11, align 4
  %27 = insertvalue { ptr, i32 } poison, ptr %25, 0
  %28 = insertvalue { ptr, i32 } %27, i32 %26, 1
  resume { ptr, i32 } %28
}